target datalayout = "e-m:e-p270:32:32-p271:32:32-p272:64:64-i64:64-i128:128-f80:128-n8:16:32:64-S128"
target triple = "x86_64-pc-linux-gnu"

%struct.Cec_ParSim_t_ = type { i32, i32, i32, i32, i32, i32, i32, i32, i32, i32, i32, i32 }

@.str.2 = private unnamed_addr constant [68 x i8] c"Performing rounds of random simulation of %d frames with %d words.\0A\00", align 1
@.str.3 = private unnamed_addr constant [47 x i8] c"Random simulation is stopped after %d rounds.\0A\00", align 1
@.str.4 = private unnamed_addr constant [46 x i8] c"Random simulation saturated after %d rounds.\0A\00", align 1
@.str.5 = private unnamed_addr constant [57 x i8] c"The number of POs that are not const-0 candidates = %d.\0A\00", align 1

; Function Attrs: nounwind uwtable
define void @Cec_ManSimulation(ptr noundef %0, ptr noundef %1) #0 {
  %3 = alloca ptr, align 8
  %4 = alloca ptr, align 8
  %5 = alloca i32, align 4
  %6 = alloca i32, align 4
  %7 = alloca i32, align 4
  %8 = alloca i32, align 4
  %9 = alloca i32, align 4
  %10 = alloca i32, align 4
  store ptr %0, ptr %3, align 8, !tbaa !102
  store ptr %1, ptr %4, align 8, !tbaa !19
  call void @llvm.lifetime.start.p0(i64 4, ptr %5) #10
  call void @llvm.lifetime.start.p0(i64 4, ptr %6) #10
  call void @llvm.lifetime.start.p0(i64 4, ptr %7) #10
  call void @llvm.lifetime.start.p0(i64 4, ptr %8) #10
  store i32 0, ptr %8, align 4, !tbaa !104
  call void @llvm.lifetime.start.p0(i64 4, ptr %9) #10
  store i32 0, ptr %9, align 4, !tbaa !104
  %11 = call i32 @Gia_ManRandom(i32 noundef 1)
  %12 = load ptr, ptr %4, align 8, !tbaa !19
  %13 = getelementptr inbounds nuw %struct.Cec_ParSim_t_, ptr %12, i32 0, i32 7
  %14 = load i32, ptr %13, align 4, !tbaa !30
  %15 = icmp ne i32 %14, 0
  br i1 %15, label %16, label %26

16:                                               ; preds = %2
  %17 = load ptr, ptr %4, align 8, !tbaa !19
  %18 = getelementptr inbounds nuw %struct.Cec_ParSim_t_, ptr %17, i32 0, i32 2
  %19 = load i32, ptr %18, align 4, !tbaa !24
  %20 = load ptr, ptr %4, align 8, !tbaa !19
  %21 = getelementptr inbounds nuw %struct.Cec_ParSim_t_, ptr %20, i32 0, i32 1
  %22 = load i32, ptr %21, align 4, !tbaa !23
  %23 = load ptr, ptr %4, align 8, !tbaa !19
  %24 = getelementptr inbounds nuw %struct.Cec_ParSim_t_, ptr %23, i32 0, i32 0
  %25 = load i32, ptr %24, align 4, !tbaa !21
  call void (i32, ptr, ...) @Abc_Print(i32 noundef 1, ptr noundef @.str.2, i32 noundef %19, i32 noundef %22, i32 noundef %25)
  br label %26

26:                                               ; preds = %16, %2
  %27 = load ptr, ptr %3, align 8, !tbaa !102
  %28 = call i32 @Gia_ManEquivCountLits(ptr noundef %27)
  store i32 %28, ptr %6, align 4, !tbaa !104
  store i32 0, ptr %5, align 4, !tbaa !104
  br label %29

29:                                               ; preds = %64, %26
  %30 = load i32, ptr %5, align 4, !tbaa !104
  %31 = load ptr, ptr %4, align 8, !tbaa !19
  %32 = getelementptr inbounds nuw %struct.Cec_ParSim_t_, ptr %31, i32 0, i32 2
  %33 = load i32, ptr %32, align 4, !tbaa !24
  %34 = icmp slt i32 %30, %33
  br i1 %34, label %35, label %67

35:                                               ; preds = %29
  %36 = load ptr, ptr %3, align 8, !tbaa !102
  %37 = load ptr, ptr %4, align 8, !tbaa !19
  %38 = call i32 @Cec_ManSimulationOne(ptr noundef %36, ptr noundef %37)
  %39 = icmp ne i32 %38, 0
  br i1 %39, label %40, label %41

40:                                               ; preds = %35
  store i32 1, ptr %9, align 4, !tbaa !104
  br label %67

41:                                               ; preds = %35
  %42 = load ptr, ptr %3, align 8, !tbaa !102
  %43 = call i32 @Gia_ManEquivCountLits(ptr noundef %42)
  store i32 %43, ptr %7, align 4, !tbaa !104
  %44 = load i32, ptr %6, align 4, !tbaa !104
  %45 = icmp eq i32 %44, 0
  br i1 %45, label %50, label %46

46:                                               ; preds = %41
  %47 = load i32, ptr %6, align 4, !tbaa !104
  %48 = load i32, ptr %7, align 4, !tbaa !104
  %49 = icmp sgt i32 %47, %48
  br i1 %49, label %50, label %52

50:                                               ; preds = %46, %41
  %51 = load i32, ptr %7, align 4, !tbaa !104
  store i32 %51, ptr %6, align 4, !tbaa !104
  store i32 0, ptr %8, align 4, !tbaa !104
  br label %63

52:                                               ; preds = %46
  %53 = load i32, ptr %8, align 4, !tbaa !104
  %54 = add nsw i32 %53, 1
  store i32 %54, ptr %8, align 4, !tbaa !104
  %55 = load ptr, ptr %4, align 8, !tbaa !19
  %56 = getelementptr inbounds nuw %struct.Cec_ParSim_t_, ptr %55, i32 0, i32 3
  %57 = load i32, ptr %56, align 4, !tbaa !25
  %58 = icmp eq i32 %54, %57
  br i1 %58, label %59, label %62

59:                                               ; preds = %52
  %60 = load i32, ptr %5, align 4, !tbaa !104
  %61 = add nsw i32 %60, 1
  store i32 %61, ptr %5, align 4, !tbaa !104
  br label %67

62:                                               ; preds = %52
  br label %63

63:                                               ; preds = %62, %50
  br label %64

64:                                               ; preds = %63
  %65 = load i32, ptr %5, align 4, !tbaa !104
  %66 = add nsw i32 %65, 1
  store i32 %66, ptr %5, align 4, !tbaa !104
  br label %29, !llvm.loop !135

67:                                               ; preds = %59, %40, %29
  %68 = load i32, ptr %5, align 4, !tbaa !104
  %69 = load ptr, ptr %4, align 8, !tbaa !19
  %70 = getelementptr inbounds nuw %struct.Cec_ParSim_t_, ptr %69, i32 0, i32 2
  %71 = load i32, ptr %70, align 4, !tbaa !24
  %72 = icmp eq i32 %68, %71
  br i1 %72, label %76, label %73

73:                                               ; preds = %67
  %74 = load i32, ptr %9, align 4, !tbaa !104
  %75 = icmp ne i32 %74, 0
  br i1 %75, label %76, label %78

76:                                               ; preds = %73, %67
  %77 = load i32, ptr %5, align 4, !tbaa !104
  call void (i32, ptr, ...) @Abc_Print(i32 noundef 1, ptr noundef @.str.3, i32 noundef %77)
  br label %80

78:                                               ; preds = %73
  %79 = load i32, ptr %5, align 4, !tbaa !104
  call void (i32, ptr, ...) @Abc_Print(i32 noundef 1, ptr noundef @.str.4, i32 noundef %79)
  br label %80

80:                                               ; preds = %78, %76
  %81 = load ptr, ptr %4, align 8, !tbaa !19
  %82 = getelementptr inbounds nuw %struct.Cec_ParSim_t_, ptr %81, i32 0, i32 6
  %83 = load i32, ptr %82, align 4, !tbaa !27
  %84 = icmp ne i32 %83, 0
  br i1 %84, label %85, label %93

85:                                               ; preds = %80
  call void @llvm.lifetime.start.p0(i64 4, ptr %10) #10
  %86 = load ptr, ptr %3, align 8, !tbaa !102
  %87 = call i32 @Cec_ManCountNonConstOutputs(ptr noundef %86)
  store i32 %87, ptr %10, align 4, !tbaa !104
  %88 = load i32, ptr %10, align 4, !tbaa !104
  %89 = icmp ne i32 %88, 0
  br i1 %89, label %90, label %92

90:                                               ; preds = %85
  %91 = load i32, ptr %10, align 4, !tbaa !104
  call void (i32, ptr, ...) @Abc_Print(i32 noundef 1, ptr noundef @.str.5, i32 noundef %91)
  br label %92

92:                                               ; preds = %90, %85
  call void @llvm.lifetime.end.p0(i64 4, ptr %10) #10
  br label %93

93:                                               ; preds = %92, %80
  call void @llvm.lifetime.end.p0(i64 4, ptr %9) #10
  call void @llvm.lifetime.end.p0(i64 4, ptr %8) #10
  call void @llvm.lifetime.end.p0(i64 4, ptr %7) #10
  call void @llvm.lifetime.end.p0(i64 4, ptr %6) #10
  call void @llvm.lifetime.end.p0(i64 4, ptr %5) #10
  ret void
}