; Function Attrs: nounwind uwtable
define void @Cec_ManSimulation(ptr noundef %0, ptr noundef %1) local_unnamed_addr #2 {
  %3 = tail call i32 @Gia_ManRandom(i32 noundef 1) #14
  %4 = getelementptr inbounds nuw i8, ptr %1, i64 28
  %5 = load i32, ptr %4, align 4, !tbaa !101
  %.not = icmp eq i32 %5, 0
  br i1 %.not, label %12, label %6

6:                                                ; preds = %2
  %7 = getelementptr inbounds nuw i8, ptr %1, i64 8
  %8 = load i32, ptr %7, align 4, !tbaa !19
  %9 = getelementptr inbounds nuw i8, ptr %1, i64 4
  %10 = load i32, ptr %9, align 4, !tbaa !18
  %11 = load i32, ptr %1, align 4, !tbaa !16
  tail call void (i32, ptr, ...) @Abc_Print(i32 poison, ptr noundef nonnull @.str.2, i32 noundef %8, i32 noundef %10, i32 noundef %11)
  br label %12

12:                                               ; preds = %6, %2
  %13 = tail call i32 @Gia_ManEquivCountLits(ptr noundef %0) #14
  %14 = getelementptr inbounds nuw i8, ptr %1, i64 8
  %15 = load i32, ptr %14, align 4, !tbaa !19
  %16 = icmp sgt i32 %15, 0
  br i1 %16, label %.lr.ph, label %.loopexit

.lr.ph:                                           ; preds = %12
  %17 = getelementptr inbounds nuw i8, ptr %1, i64 12
  br label %18

18:                                               ; preds = %.lr.ph, %30
  %.047 = phi i32 [ 0, %.lr.ph ], [ %31, %30 ]
  %.02846 = phi i32 [ 0, %.lr.ph ], [ %.129, %30 ]
  %.03045 = phi i32 [ %13, %.lr.ph ], [ %.131, %30 ]
  %19 = tail call i32 @Cec_ManSimulationOne(ptr noundef %0, ptr noundef nonnull %1)
  %.not34 = icmp eq i32 %19, 0
  br i1 %.not34, label %20, label %.thread

20:                                               ; preds = %18
  %21 = tail call i32 @Gia_ManEquivCountLits(ptr noundef %0) #14
  %22 = icmp eq i32 %.03045, 0
  %23 = icmp sgt i32 %.03045, %21
  %or.cond37 = select i1 %22, i1 true, i1 %23
  br i1 %or.cond37, label %30, label %24

24:                                               ; preds = %20
  %25 = add nsw i32 %.02846, 1
  %26 = load i32, ptr %17, align 4, !tbaa !20
  %27 = icmp eq i32 %25, %26
  br i1 %27, label %28, label %30

28:                                               ; preds = %24
  %29 = add nuw nsw i32 %.047, 1
  %.pre = load i32, ptr %14, align 4, !tbaa !19
  br label %.loopexit

30:                                               ; preds = %20, %24
  %.131 = phi i32 [ %.03045, %24 ], [ %21, %20 ]
  %.129 = phi i32 [ %25, %24 ], [ 0, %20 ]
  %31 = add nuw nsw i32 %.047, 1
  %32 = load i32, ptr %14, align 4, !tbaa !19
  %33 = icmp slt i32 %31, %32
  br i1 %33, label %18, label %.loopexit, !llvm.loop !102

.loopexit:                                        ; preds = %30, %12, %28
  %34 = phi i32 [ %.pre, %28 ], [ %15, %12 ], [ %32, %30 ]
  %.1 = phi i32 [ %29, %28 ], [ 0, %12 ], [ %31, %30 ]
  %35 = icmp eq i32 %.1, %34
  br i1 %35, label %.thread, label %36

.thread:                                          ; preds = %18, %.loopexit
  %.140 = phi i32 [ %34, %.loopexit ], [ %.047, %18 ]
  tail call void (i32, ptr, ...) @Abc_Print(i32 poison, ptr noundef nonnull @.str.3, i32 noundef %.140)
  br label %37

36:                                               ; preds = %.loopexit
  tail call void (i32, ptr, ...) @Abc_Print(i32 poison, ptr noundef nonnull @.str.4, i32 noundef %.1)
  br label %37

37:                                               ; preds = %36, %.thread
  %38 = getelementptr inbounds nuw i8, ptr %1, i64 24
  %39 = load i32, ptr %38, align 4, !tbaa !104
  %.not35 = icmp eq i32 %39, 0
  br i1 %.not35, label %43, label %40

40:                                               ; preds = %37
  %41 = tail call i32 @Cec_ManCountNonConstOutputs(ptr noundef %0) #14
  %.not36 = icmp eq i32 %41, 0
  br i1 %.not36, label %43, label %42

42:                                               ; preds = %40
  tail call void (i32, ptr, ...) @Abc_Print(i32 poison, ptr noundef nonnull @.str.5, i32 noundef %41)
  br label %43

43:                                               ; preds = %40, %42, %37
  ret void
}